target datalayout = "e-m:e-p270:32:32-p271:32:32-p272:64:64-i64:64-i128:128-f80:128-n8:16:32:64-S128"
target triple = "x86_64-pc-linux-gnu"

; Function Attrs: mustprogress nounwind uwtable
define noundef i32 @_Z19gmx_strncasecmp_minPKcS0_i(ptr noundef %0, ptr noundef %1, i32 noundef %2) #1 {
  %4 = alloca i32, align 4
  %5 = alloca ptr, align 8
  %6 = alloca ptr, align 8
  %7 = alloca i32, align 4
  %8 = alloca i8, align 1
  %9 = alloca i8, align 1
  %10 = alloca ptr, align 8
  %11 = alloca ptr, align 8
  %12 = alloca i32, align 4
  store ptr %0, ptr %5, align 8, !tbaa !4
  store ptr %1, ptr %6, align 8, !tbaa !4
  store i32 %2, ptr %7, align 4, !tbaa !9
  call void @llvm.lifetime.start.p0(i64 1, ptr %8) #13
  store i8 0, ptr %8, align 1, !tbaa !11
  call void @llvm.lifetime.start.p0(i64 1, ptr %9) #13
  store i8 0, ptr %9, align 1, !tbaa !11
  call void @llvm.lifetime.start.p0(i64 8, ptr %10) #13
  %13 = load ptr, ptr %5, align 8, !tbaa !4
  store ptr %13, ptr %10, align 8, !tbaa !4
  call void @llvm.lifetime.start.p0(i64 8, ptr %11) #13
  %14 = load ptr, ptr %6, align 8, !tbaa !4
  store ptr %14, ptr %11, align 8, !tbaa !4
  br label %15

15:                                               ; preds = %86, %3
  br label %16

16:                                               ; preds = %31, %15
  %17 = load ptr, ptr %5, align 8, !tbaa !4
  %18 = getelementptr inbounds nuw i8, ptr %17, i32 1
  store ptr %18, ptr %5, align 8, !tbaa !4
  %19 = load i8, ptr %17, align 1, !tbaa !11
  %20 = sext i8 %19 to i32
  %21 = call i32 @toupper(i32 noundef %20) #14
  %22 = trunc i32 %21 to i8
  store i8 %22, ptr %8, align 1, !tbaa !11
  br label %23

23:                                               ; preds = %16
  %24 = load i8, ptr %8, align 1, !tbaa !11
  %25 = sext i8 %24 to i32
  %26 = icmp eq i32 %25, 45
  br i1 %26, label %31, label %27

27:                                               ; preds = %23
  %28 = load i8, ptr %8, align 1, !tbaa !11
  %29 = sext i8 %28 to i32
  %30 = icmp eq i32 %29, 95
  br label %31

31:                                               ; preds = %27, %23
  %32 = phi i1 [ true, %23 ], [ %30, %27 ]
  br i1 %32, label %16, label %33, !llvm.loop !76

33:                                               ; preds = %31
  br label %34

34:                                               ; preds = %49, %33
  %35 = load ptr, ptr %6, align 8, !tbaa !4
  %36 = getelementptr inbounds nuw i8, ptr %35, i32 1
  store ptr %36, ptr %6, align 8, !tbaa !4
  %37 = load i8, ptr %35, align 1, !tbaa !11
  %38 = sext i8 %37 to i32
  %39 = call i32 @toupper(i32 noundef %38) #14
  %40 = trunc i32 %39 to i8
  store i8 %40, ptr %9, align 1, !tbaa !11
  br label %41

41:                                               ; preds = %34
  %42 = load i8, ptr %9, align 1, !tbaa !11
  %43 = sext i8 %42 to i32
  %44 = icmp eq i32 %43, 45
  br i1 %44, label %49, label %45

45:                                               ; preds = %41
  %46 = load i8, ptr %9, align 1, !tbaa !11
  %47 = sext i8 %46 to i32
  %48 = icmp eq i32 %47, 95
  br label %49

49:                                               ; preds = %45, %41
  %50 = phi i1 [ true, %41 ], [ %48, %45 ]
  br i1 %50, label %34, label %51, !llvm.loop !77

51:                                               ; preds = %49
  %52 = load i8, ptr %8, align 1, !tbaa !11
  %53 = sext i8 %52 to i32
  %54 = load i8, ptr %9, align 1, !tbaa !11
  %55 = sext i8 %54 to i32
  %56 = icmp ne i32 %53, %55
  br i1 %56, label %57, label %63

57:                                               ; preds = %51
  %58 = load i8, ptr %8, align 1, !tbaa !11
  %59 = sext i8 %58 to i32
  %60 = load i8, ptr %9, align 1, !tbaa !11
  %61 = sext i8 %60 to i32
  %62 = sub nsw i32 %59, %61
  store i32 %62, ptr %4, align 4
  store i32 1, ptr %12, align 4
  br label %89

63:                                               ; preds = %51
  br label %64

64:                                               ; preds = %63
  %65 = load i8, ptr %8, align 1, !tbaa !11
  %66 = sext i8 %65 to i32
  %67 = icmp ne i32 %66, 0
  br i1 %67, label %68, label %86

68:                                               ; preds = %64
  %69 = load ptr, ptr %5, align 8, !tbaa !4
  %70 = load ptr, ptr %10, align 8, !tbaa !4
  %71 = ptrtoint ptr %69 to i64
  %72 = ptrtoint ptr %70 to i64
  %73 = sub i64 %71, %72
  %74 = load i32, ptr %7, align 4, !tbaa !9
  %75 = sext i32 %74 to i64
  %76 = icmp slt i64 %73, %75
  br i1 %76, label %77, label %86

77:                                               ; preds = %68
  %78 = load ptr, ptr %6, align 8, !tbaa !4
  %79 = load ptr, ptr %11, align 8, !tbaa !4
  %80 = ptrtoint ptr %78 to i64
  %81 = ptrtoint ptr %79 to i64
  %82 = sub i64 %80, %81
  %83 = load i32, ptr %7, align 4, !tbaa !9
  %84 = sext i32 %83 to i64
  %85 = icmp slt i64 %82, %84
  br label %86

86:                                               ; preds = %77, %68, %64
  %87 = phi i1 [ false, %68 ], [ false, %64 ], [ %85, %77 ]
  br i1 %87, label %15, label %88, !llvm.loop !78

88:                                               ; preds = %86
  store i32 0, ptr %4, align 4
  store i32 1, ptr %12, align 4
  br label %89

89:                                               ; preds = %88, %57
  call void @llvm.lifetime.end.p0(i64 8, ptr %11) #13
  call void @llvm.lifetime.end.p0(i64 8, ptr %10) #13
  call void @llvm.lifetime.end.p0(i64 1, ptr %9) #13
  call void @llvm.lifetime.end.p0(i64 1, ptr %8) #13
  %90 = load i32, ptr %4, align 4
  ret i32 %90
}