; Function Attrs: mustprogress nofree nounwind willreturn memory(read) uwtable
define noundef range(i32 -255, 256) i32 @_Z19gmx_strncasecmp_minPKcS0_i(ptr noundef %0, ptr noundef %1, i32 noundef %2) local_unnamed_addr #14 {
  %4 = ptrtoint ptr %0 to i64
  %5 = sext i32 %2 to i64
  %6 = ptrtoint ptr %1 to i64
  br label %7

7:                                                ; preds = %22, %3
  %.020 = phi ptr [ %1, %3 ], [ %12, %22 ]
  %.019 = phi ptr [ %0, %3 ], [ %8, %22 ]
  br label %.backedge31

.backedge31:                                      ; preds = %.backedge31.backedge, %7
  %.1 = phi ptr [ %.019, %7 ], [ %8, %.backedge31.backedge ]
  %8 = getelementptr inbounds nuw i8, ptr %.1, i64 1
  %9 = load i8, ptr %.1, align 1, !tbaa !4
  %10 = sext i8 %9 to i32
  %11 = tail call i32 @toupper(i32 noundef %10) #24
  %sext = shl i32 %11, 24
  switch i32 %sext, label %.preheader [
    i32 1593835520, label %.backedge31.backedge
    i32 754974720, label %.backedge31.backedge
  ]

.backedge31.backedge:                             ; preds = %.backedge31, %.backedge31
  br label %.backedge31

.preheader:                                       ; preds = %.backedge31, %.preheader.backedge
  %.121 = phi ptr [ %12, %.preheader.backedge ], [ %.020, %.backedge31 ]
  %12 = getelementptr inbounds nuw i8, ptr %.121, i64 1
  %13 = load i8, ptr %.121, align 1, !tbaa !4
  %14 = sext i8 %13 to i32
  %15 = tail call i32 @toupper(i32 noundef %14) #24
  %sext26 = shl i32 %15, 24
  switch i32 %sext26, label %16 [
    i32 1593835520, label %.preheader.backedge
    i32 754974720, label %.preheader.backedge
  ]

.preheader.backedge:                              ; preds = %.preheader, %.preheader
  br label %.preheader

16:                                               ; preds = %.preheader
  %17 = ashr exact i32 %sext, 24
  %18 = ashr exact i32 %sext26, 24
  %.not = icmp eq i32 %17, %18
  br i1 %.not, label %21, label %19

19:                                               ; preds = %16
  %20 = sub nsw i32 %17, %18
  br label %.critedge

21:                                               ; preds = %16
  %.not27 = icmp eq i32 %sext, 0
  br i1 %.not27, label %.critedge, label %22

22:                                               ; preds = %21
  %23 = ptrtoint ptr %8 to i64
  %24 = sub i64 %23, %4
  %25 = icmp slt i64 %24, %5
  %26 = ptrtoint ptr %12 to i64
  %27 = sub i64 %26, %6
  %28 = icmp slt i64 %27, %5
  %or.cond = select i1 %25, i1 %28, i1 false
  br i1 %or.cond, label %7, label %.critedge, !llvm.loop !24

.critedge:                                        ; preds = %21, %22, %19
  %.0 = phi i32 [ %20, %19 ], [ 0, %22 ], [ 0, %21 ]
  ret i32 %.0
}